target datalayout = "e-m:e-p270:32:32-p271:32:32-p272:64:64-i64:64-i128:128-f80:128-n8:16:32:64-S128"
target triple = "x86_64-pc-linux-gnu"

%struct.SDL_Surface = type { i32, i32, i32, i32, i32, ptr, i32, ptr, i32, i32, ptr, i32, ptr, i32, ptr, i32, %struct.SDL_Rect, %struct.SDL_BlitMap }
%struct.SDL_Rect = type { i32, i32, i32, i32 }
%struct.SDL_BlitMap = type { i32, ptr, ptr, %struct.SDL_BlitInfo, i32, i32 }
%struct.SDL_BlitInfo = type { ptr, ptr, i32, i32, i32, i32, ptr, ptr, i32, i32, i32, i32, ptr, ptr, ptr, ptr, ptr, ptr, i32, i32, i8, i8, i8, i8 }
%struct.SDL_PixelFormatDetails = type { i32, i8, i8, [2 x i8], i32, i32, i32, i32, i8, i8, i8, i8, i8, i8, i8, i8 }

@one_blit = internal constant [5 x ptr] [ptr null, ptr @Blit1to1, ptr @Blit1to2, ptr @Blit1to3, ptr @Blit1to4], align 16
@one_blitkey = internal constant [5 x ptr] [ptr null, ptr @Blit1to1Key, ptr @Blit1to2Key, ptr @Blit1to3Key, ptr @Blit1to4Key], align 16

; Function Attrs: nounwind uwtable
define hidden ptr @SDL_CalculateBlit1(ptr noundef %0) #0 {
  %2 = alloca ptr, align 8
  %3 = alloca ptr, align 8
  %4 = alloca i32, align 4
  %5 = alloca i32, align 4
  store ptr %0, ptr %3, align 8
  call void @llvm.lifetime.start.p0(i64 4, ptr %4) #2
  %6 = load ptr, ptr %3, align 8
  %7 = getelementptr inbounds nuw %struct.SDL_Surface, ptr %6, i32 0, i32 17
  %8 = getelementptr inbounds nuw %struct.SDL_BlitMap, ptr %7, i32 0, i32 3
  %9 = getelementptr inbounds nuw %struct.SDL_BlitInfo, ptr %8, i32 0, i32 14
  %10 = load ptr, ptr %9, align 8
  %11 = getelementptr inbounds nuw %struct.SDL_PixelFormatDetails, ptr %10, i32 0, i32 0
  %12 = load i32, ptr %11, align 4
  %13 = icmp ne i32 %12, 0
  br i1 %13, label %14, label %26

14:                                               ; preds = %1
  %15 = load ptr, ptr %3, align 8
  %16 = getelementptr inbounds nuw %struct.SDL_Surface, ptr %15, i32 0, i32 17
  %17 = getelementptr inbounds nuw %struct.SDL_BlitMap, ptr %16, i32 0, i32 3
  %18 = getelementptr inbounds nuw %struct.SDL_BlitInfo, ptr %17, i32 0, i32 14
  %19 = load ptr, ptr %18, align 8
  %20 = getelementptr inbounds nuw %struct.SDL_PixelFormatDetails, ptr %19, i32 0, i32 0
  %21 = load i32, ptr %20, align 4
  %22 = lshr i32 %21, 28
  %23 = and i32 %22, 15
  %24 = icmp ne i32 %23, 1
  br i1 %24, label %25, label %26

25:                                               ; preds = %14
  br label %36

26:                                               ; preds = %14, %1
  %27 = load ptr, ptr %3, align 8
  %28 = getelementptr inbounds nuw %struct.SDL_Surface, ptr %27, i32 0, i32 17
  %29 = getelementptr inbounds nuw %struct.SDL_BlitMap, ptr %28, i32 0, i32 3
  %30 = getelementptr inbounds nuw %struct.SDL_BlitInfo, ptr %29, i32 0, i32 14
  %31 = load ptr, ptr %30, align 8
  %32 = getelementptr inbounds nuw %struct.SDL_PixelFormatDetails, ptr %31, i32 0, i32 0
  %33 = load i32, ptr %32, align 4
  %34 = lshr i32 %33, 8
  %35 = and i32 %34, 255
  br label %36

36:                                               ; preds = %26, %25
  %37 = phi i32 [ 0, %25 ], [ %35, %26 ]
  %38 = icmp ult i32 %37, 8
  br i1 %38, label %39, label %40

39:                                               ; preds = %36
  store i32 0, ptr %4, align 4
  br label %111

40:                                               ; preds = %36
  %41 = load ptr, ptr %3, align 8
  %42 = getelementptr inbounds nuw %struct.SDL_Surface, ptr %41, i32 0, i32 17
  %43 = getelementptr inbounds nuw %struct.SDL_BlitMap, ptr %42, i32 0, i32 3
  %44 = getelementptr inbounds nuw %struct.SDL_BlitInfo, ptr %43, i32 0, i32 14
  %45 = load ptr, ptr %44, align 8
  %46 = getelementptr inbounds nuw %struct.SDL_PixelFormatDetails, ptr %45, i32 0, i32 0
  %47 = load i32, ptr %46, align 4
  %48 = icmp ne i32 %47, 0
  br i1 %48, label %49, label %99

49:                                               ; preds = %40
  %50 = load ptr, ptr %3, align 8
  %51 = getelementptr inbounds nuw %struct.SDL_Surface, ptr %50, i32 0, i32 17
  %52 = getelementptr inbounds nuw %struct.SDL_BlitMap, ptr %51, i32 0, i32 3
  %53 = getelementptr inbounds nuw %struct.SDL_BlitInfo, ptr %52, i32 0, i32 14
  %54 = load ptr, ptr %53, align 8
  %55 = getelementptr inbounds nuw %struct.SDL_PixelFormatDetails, ptr %54, i32 0, i32 0
  %56 = load i32, ptr %55, align 4
  %57 = lshr i32 %56, 28
  %58 = and i32 %57, 15
  %59 = icmp ne i32 %58, 1
  br i1 %59, label %60, label %99

60:                                               ; preds = %49
  %61 = load ptr, ptr %3, align 8
  %62 = getelementptr inbounds nuw %struct.SDL_Surface, ptr %61, i32 0, i32 17
  %63 = getelementptr inbounds nuw %struct.SDL_BlitMap, ptr %62, i32 0, i32 3
  %64 = getelementptr inbounds nuw %struct.SDL_BlitInfo, ptr %63, i32 0, i32 14
  %65 = load ptr, ptr %64, align 8
  %66 = getelementptr inbounds nuw %struct.SDL_PixelFormatDetails, ptr %65, i32 0, i32 0
  %67 = load i32, ptr %66, align 4
  %68 = icmp eq i32 %67, 844715353
  br i1 %68, label %96, label %69

69:                                               ; preds = %60
  %70 = load ptr, ptr %3, align 8
  %71 = getelementptr inbounds nuw %struct.SDL_Surface, ptr %70, i32 0, i32 17
  %72 = getelementptr inbounds nuw %struct.SDL_BlitMap, ptr %71, i32 0, i32 3
  %73 = getelementptr inbounds nuw %struct.SDL_BlitInfo, ptr %72, i32 0, i32 14
  %74 = load ptr, ptr %73, align 8
  %75 = getelementptr inbounds nuw %struct.SDL_PixelFormatDetails, ptr %74, i32 0, i32 0
  %76 = load i32, ptr %75, align 4
  %77 = icmp eq i32 %76, 1498831189
  br i1 %77, label %96, label %78

78:                                               ; preds = %69
  %79 = load ptr, ptr %3, align 8
  %80 = getelementptr inbounds nuw %struct.SDL_Surface, ptr %79, i32 0, i32 17
  %81 = getelementptr inbounds nuw %struct.SDL_BlitMap, ptr %80, i32 0, i32 3
  %82 = getelementptr inbounds nuw %struct.SDL_BlitInfo, ptr %81, i32 0, i32 14
  %83 = load ptr, ptr %82, align 8
  %84 = getelementptr inbounds nuw %struct.SDL_PixelFormatDetails, ptr %83, i32 0, i32 0
  %85 = load i32, ptr %84, align 4
  %86 = icmp eq i32 %85, 1431918169
  br i1 %86, label %96, label %87

87:                                               ; preds = %78
  %88 = load ptr, ptr %3, align 8
  %89 = getelementptr inbounds nuw %struct.SDL_Surface, ptr %88, i32 0, i32 17
  %90 = getelementptr inbounds nuw %struct.SDL_BlitMap, ptr %89, i32 0, i32 3
  %91 = getelementptr inbounds nuw %struct.SDL_BlitInfo, ptr %90, i32 0, i32 14
  %92 = load ptr, ptr %91, align 8
  %93 = getelementptr inbounds nuw %struct.SDL_PixelFormatDetails, ptr %92, i32 0, i32 0
  %94 = load i32, ptr %93, align 4
  %95 = icmp eq i32 %94, 808530000
  br label %96

96:                                               ; preds = %87, %78, %69, %60
  %97 = phi i1 [ true, %78 ], [ true, %69 ], [ true, %60 ], [ %95, %87 ]
  %98 = select i1 %97, i32 2, i32 1
  br label %109

99:                                               ; preds = %49, %40
  %100 = load ptr, ptr %3, align 8
  %101 = getelementptr inbounds nuw %struct.SDL_Surface, ptr %100, i32 0, i32 17
  %102 = getelementptr inbounds nuw %struct.SDL_BlitMap, ptr %101, i32 0, i32 3
  %103 = getelementptr inbounds nuw %struct.SDL_BlitInfo, ptr %102, i32 0, i32 14
  %104 = load ptr, ptr %103, align 8
  %105 = getelementptr inbounds nuw %struct.SDL_PixelFormatDetails, ptr %104, i32 0, i32 0
  %106 = load i32, ptr %105, align 4
  %107 = lshr i32 %106, 0
  %108 = and i32 %107, 255
  br label %109

109:                                              ; preds = %99, %96
  %110 = phi i32 [ %98, %96 ], [ %108, %99 ]
  store i32 %110, ptr %4, align 4
  br label %111

111:                                              ; preds = %109, %39
  %112 = load ptr, ptr %3, align 8
  %113 = getelementptr inbounds nuw %struct.SDL_Surface, ptr %112, i32 0, i32 17
  %114 = getelementptr inbounds nuw %struct.SDL_BlitMap, ptr %113, i32 0, i32 3
  %115 = getelementptr inbounds nuw %struct.SDL_BlitInfo, ptr %114, i32 0, i32 18
  %116 = load i32, ptr %115, align 8
  %117 = and i32 %116, -28673
  switch i32 %117, label %169 [
    i32 0, label %118
    i32 1024, label %128
    i32 1040, label %138
    i32 16, label %161
    i32 18, label %161
    i32 1042, label %165
  ]

118:                                              ; preds = %111
  %119 = load i32, ptr %4, align 4
  %120 = sext i32 %119 to i64
  %121 = icmp ult i64 %120, 5
  br i1 %121, label %122, label %127

122:                                              ; preds = %118
  %123 = load i32, ptr %4, align 4
  %124 = sext i32 %123 to i64
  %125 = getelementptr inbounds [5 x ptr], ptr @one_blit, i64 0, i64 %124
  %126 = load ptr, ptr %125, align 8
  store ptr %126, ptr %2, align 8
  store i32 1, ptr %5, align 4
  br label %170

127:                                              ; preds = %118
  br label %169

128:                                              ; preds = %111
  %129 = load i32, ptr %4, align 4
  %130 = sext i32 %129 to i64
  %131 = icmp ult i64 %130, 5
  br i1 %131, label %132, label %137

132:                                              ; preds = %128
  %133 = load i32, ptr %4, align 4
  %134 = sext i32 %133 to i64
  %135 = getelementptr inbounds [5 x ptr], ptr @one_blitkey, i64 0, i64 %134
  %136 = load ptr, ptr %135, align 8
  store ptr %136, ptr %2, align 8
  store i32 1, ptr %5, align 4
  br label %170

137:                                              ; preds = %128
  br label %169

138:                                              ; preds = %111
  %139 = load ptr, ptr %3, align 8
  %140 = getelementptr inbounds nuw %struct.SDL_Surface, ptr %139, i32 0, i32 17
  %141 = getelementptr inbounds nuw %struct.SDL_BlitMap, ptr %140, i32 0, i32 3
  %142 = getelementptr inbounds nuw %struct.SDL_BlitInfo, ptr %141, i32 0, i32 23
  %143 = load i8, ptr %142, align 1
  %144 = zext i8 %143 to i32
  %145 = icmp eq i32 %144, 255
  br i1 %145, label %146, label %156

146:                                              ; preds = %138
  %147 = load i32, ptr %4, align 4
  %148 = sext i32 %147 to i64
  %149 = icmp ult i64 %148, 5
  br i1 %149, label %150, label %155

150:                                              ; preds = %146
  %151 = load i32, ptr %4, align 4
  %152 = sext i32 %151 to i64
  %153 = getelementptr inbounds [5 x ptr], ptr @one_blitkey, i64 0, i64 %152
  %154 = load ptr, ptr %153, align 8
  store ptr %154, ptr %2, align 8
  store i32 1, ptr %5, align 4
  br label %170

155:                                              ; preds = %146
  br label %160

156:                                              ; preds = %138
  %157 = load i32, ptr %4, align 4
  %158 = icmp sge i32 %157, 2
  %159 = select i1 %158, ptr @Blit1toNAlphaKey, ptr null
  store ptr %159, ptr %2, align 8
  store i32 1, ptr %5, align 4
  br label %170

160:                                              ; preds = %155
  br label %169

161:                                              ; preds = %111, %111
  %162 = load i32, ptr %4, align 4
  %163 = icmp sge i32 %162, 2
  %164 = select i1 %163, ptr @Blit1toNAlpha, ptr null
  store ptr %164, ptr %2, align 8
  store i32 1, ptr %5, align 4
  br label %170

165:                                              ; preds = %111
  %166 = load i32, ptr %4, align 4
  %167 = icmp sge i32 %166, 2
  %168 = select i1 %167, ptr @Blit1toNAlphaKey, ptr null
  store ptr %168, ptr %2, align 8
  store i32 1, ptr %5, align 4
  br label %170

169:                                              ; preds = %111, %160, %137, %127
  store ptr null, ptr %2, align 8
  store i32 1, ptr %5, align 4
  br label %170

170:                                              ; preds = %169, %165, %161, %156, %150, %132, %122
  call void @llvm.lifetime.end.p0(i64 4, ptr %4) #2
  %171 = load ptr, ptr %2, align 8
  ret ptr %171
}