; Function Attrs: mustprogress nofree norecurse nosync nounwind willreturn memory(read, inaccessiblemem: none) uwtable
define hidden ptr @SDL_CalculateBlit1(ptr noundef readonly captures(none) %0) local_unnamed_addr #0 {
.critedge:
  %1 = getelementptr inbounds nuw i8, ptr %0, i64 224
  %2 = load ptr, ptr %1, align 8
  %3 = load i32, ptr %2, align 4
  %.mask = and i32 %3, -268435456
  %.not27 = icmp ne i32 %.mask, 268435456
  %4 = and i32 %3, 63488
  %5 = icmp eq i32 %4, 0
  %or.cond33 = or i1 %.not27, %5
  %6 = and i32 %3, 255
  %.0 = select i1 %or.cond33, i32 0, i32 %6
  %7 = getelementptr inbounds nuw i8, ptr %0, i64 256
  %8 = load i32, ptr %7, align 8
  %9 = and i32 %8, -28673
  switch i32 %9, label %41 [
    i32 0, label %10
    i32 1024, label %16
    i32 1040, label %22
    i32 16, label %35
    i32 18, label %35
    i32 1042, label %38
  ]

10:                                               ; preds = %.critedge
  %11 = icmp samesign ult i32 %.0, 5
  br i1 %11, label %12, label %41

12:                                               ; preds = %10
  %13 = zext nneg i32 %.0 to i64
  %14 = getelementptr inbounds nuw [5 x ptr], ptr @one_blit, i64 0, i64 %13
  %15 = load ptr, ptr %14, align 8
  br label %41

16:                                               ; preds = %.critedge
  %17 = icmp samesign ult i32 %.0, 5
  br i1 %17, label %18, label %41

18:                                               ; preds = %16
  %19 = zext nneg i32 %.0 to i64
  %20 = getelementptr inbounds nuw [5 x ptr], ptr @one_blitkey, i64 0, i64 %19
  %21 = load ptr, ptr %20, align 8
  br label %41

22:                                               ; preds = %.critedge
  %23 = getelementptr inbounds nuw i8, ptr %0, i64 267
  %24 = load i8, ptr %23, align 1
  %25 = icmp eq i8 %24, -1
  br i1 %25, label %26, label %32

26:                                               ; preds = %22
  %27 = icmp samesign ult i32 %.0, 5
  br i1 %27, label %28, label %41

28:                                               ; preds = %26
  %29 = zext nneg i32 %.0 to i64
  %30 = getelementptr inbounds nuw [5 x ptr], ptr @one_blitkey, i64 0, i64 %29
  %31 = load ptr, ptr %30, align 8
  br label %41

32:                                               ; preds = %22
  %33 = icmp samesign ugt i32 %.0, 1
  %34 = select i1 %33, ptr @Blit1toNAlphaKey, ptr null
  br label %41

35:                                               ; preds = %.critedge, %.critedge
  %36 = icmp samesign ugt i32 %.0, 1
  %37 = select i1 %36, ptr @Blit1toNAlpha, ptr null
  br label %41

38:                                               ; preds = %.critedge
  %39 = icmp samesign ugt i32 %.0, 1
  %40 = select i1 %39, ptr @Blit1toNAlphaKey, ptr null
  br label %41

41:                                               ; preds = %.critedge, %10, %16, %26, %38, %35, %32, %28, %18, %12
  %.021 = phi ptr [ %40, %38 ], [ %37, %35 ], [ %31, %28 ], [ %34, %32 ], [ %21, %18 ], [ %15, %12 ], [ null, %26 ], [ null, %16 ], [ null, %10 ], [ null, %.critedge ]
  ret ptr %.021
}